target datalayout = "e-m:e-p270:32:32-p271:32:32-p272:64:64-i64:64-i128:128-f80:128-n8:16:32:64-S128"
target triple = "x86_64-pc-linux-gnu"

%struct.FFIOContext = type { %struct.AVIOContext, ptr, i32, i32, i64, i64, i64, i64, i32, i32, i32, i64 }
%struct.AVIOContext = type { ptr, ptr, i32, ptr, ptr, ptr, ptr, ptr, ptr, i64, i32, i32, i32, i32, i32, i64, ptr, ptr, ptr, ptr, i32, i32, ptr, ptr, ptr, i32, ptr, i64, i64 }

; Function Attrs: alwaysinline nounwind uwtable
define internal ptr @ffiocontext(ptr noundef %0) #5 {
  %2 = alloca ptr, align 8
  store ptr %0, ptr %2, align 8, !tbaa !14
  %3 = load ptr, ptr %2, align 8, !tbaa !14
  ret ptr %3
}

; Function Attrs: nounwind uwtable
define i64 @avio_size(ptr noundef %0) #0 {
  %2 = alloca i64, align 8
  %3 = alloca ptr, align 8
  %4 = alloca ptr, align 8
  %5 = alloca i64, align 8
  %6 = alloca i32, align 4
  store ptr %0, ptr %3, align 8, !tbaa !14
  call void @llvm.lifetime.start.p0(i64 8, ptr %4) #12
  %7 = load ptr, ptr %3, align 8, !tbaa !14
  %8 = call ptr @ffiocontext(ptr noundef %7)
  store ptr %8, ptr %4, align 8, !tbaa !4
  call void @llvm.lifetime.start.p0(i64 8, ptr %5) #12
  %9 = load ptr, ptr %3, align 8, !tbaa !14
  %10 = icmp ne ptr %9, null
  br i1 %10, label %12, label %11

11:                                               ; preds = %1
  store i64 -22, ptr %2, align 8
  store i32 1, ptr %6, align 4
  br label %63

12:                                               ; preds = %1
  %13 = load ptr, ptr %4, align 8, !tbaa !4
  %14 = getelementptr inbounds nuw %struct.FFIOContext, ptr %13, i32 0, i32 11
  %15 = load i64, ptr %14, align 8, !tbaa !59
  %16 = icmp ne i64 %15, 0
  br i1 %16, label %17, label %21

17:                                               ; preds = %12
  %18 = load ptr, ptr %4, align 8, !tbaa !4
  %19 = getelementptr inbounds nuw %struct.FFIOContext, ptr %18, i32 0, i32 11
  %20 = load i64, ptr %19, align 8, !tbaa !59
  store i64 %20, ptr %2, align 8
  store i32 1, ptr %6, align 4
  br label %63

21:                                               ; preds = %12
  %22 = load ptr, ptr %3, align 8, !tbaa !14
  %23 = getelementptr inbounds nuw %struct.AVIOContext, ptr %22, i32 0, i32 8
  %24 = load ptr, ptr %23, align 8, !tbaa !29
  %25 = icmp ne ptr %24, null
  br i1 %25, label %27, label %26

26:                                               ; preds = %21
  store i64 -38, ptr %2, align 8
  store i32 1, ptr %6, align 4
  br label %63

27:                                               ; preds = %21
  %28 = load ptr, ptr %3, align 8, !tbaa !14
  %29 = getelementptr inbounds nuw %struct.AVIOContext, ptr %28, i32 0, i32 8
  %30 = load ptr, ptr %29, align 8, !tbaa !29
  %31 = load ptr, ptr %3, align 8, !tbaa !14
  %32 = getelementptr inbounds nuw %struct.AVIOContext, ptr %31, i32 0, i32 5
  %33 = load ptr, ptr %32, align 8, !tbaa !25
  %34 = call i64 %30(ptr noundef %33, i64 noundef 0, i32 noundef 65536)
  store i64 %34, ptr %5, align 8, !tbaa !53
  %35 = load i64, ptr %5, align 8, !tbaa !53
  %36 = icmp slt i64 %35, 0
  br i1 %36, label %37, label %61

37:                                               ; preds = %27
  %38 = load ptr, ptr %3, align 8, !tbaa !14
  %39 = getelementptr inbounds nuw %struct.AVIOContext, ptr %38, i32 0, i32 8
  %40 = load ptr, ptr %39, align 8, !tbaa !29
  %41 = load ptr, ptr %3, align 8, !tbaa !14
  %42 = getelementptr inbounds nuw %struct.AVIOContext, ptr %41, i32 0, i32 5
  %43 = load ptr, ptr %42, align 8, !tbaa !25
  %44 = call i64 %40(ptr noundef %43, i64 noundef -1, i32 noundef 2)
  store i64 %44, ptr %5, align 8, !tbaa !53
  %45 = icmp slt i64 %44, 0
  br i1 %45, label %46, label %48

46:                                               ; preds = %37
  %47 = load i64, ptr %5, align 8, !tbaa !53
  store i64 %47, ptr %2, align 8
  store i32 1, ptr %6, align 4
  br label %63

48:                                               ; preds = %37
  %49 = load i64, ptr %5, align 8, !tbaa !53
  %50 = add nsw i64 %49, 1
  store i64 %50, ptr %5, align 8, !tbaa !53
  %51 = load ptr, ptr %3, align 8, !tbaa !14
  %52 = getelementptr inbounds nuw %struct.AVIOContext, ptr %51, i32 0, i32 8
  %53 = load ptr, ptr %52, align 8, !tbaa !29
  %54 = load ptr, ptr %3, align 8, !tbaa !14
  %55 = getelementptr inbounds nuw %struct.AVIOContext, ptr %54, i32 0, i32 5
  %56 = load ptr, ptr %55, align 8, !tbaa !25
  %57 = load ptr, ptr %3, align 8, !tbaa !14
  %58 = getelementptr inbounds nuw %struct.AVIOContext, ptr %57, i32 0, i32 9
  %59 = load i64, ptr %58, align 8, !tbaa !30
  %60 = call i64 %53(ptr noundef %56, i64 noundef %59, i32 noundef 0)
  br label %61

61:                                               ; preds = %48, %27
  %62 = load i64, ptr %5, align 8, !tbaa !53
  store i64 %62, ptr %2, align 8
  store i32 1, ptr %6, align 4
  br label %63

63:                                               ; preds = %61, %46, %26, %17, %11
  call void @llvm.lifetime.end.p0(i64 8, ptr %5) #12
  call void @llvm.lifetime.end.p0(i64 8, ptr %4) #12
  %64 = load i64, ptr %2, align 8
  ret i64 %64
}