; Function Attrs: nounwind uwtable
define i64 @avio_size(ptr noundef readonly captures(address_is_null) %0) local_unnamed_addr #3 {
  %.not = icmp eq ptr %0, null
  br i1 %.not, label %25, label %2

2:                                                ; preds = %1
  %3 = getelementptr inbounds nuw i8, ptr %0, i64 272
  %4 = load i64, ptr %3, align 8, !tbaa !37
  %.not22 = icmp eq i64 %4, 0
  br i1 %.not22, label %5, label %25

5:                                                ; preds = %2
  %6 = getelementptr inbounds nuw i8, ptr %0, i64 64
  %7 = load ptr, ptr %6, align 8, !tbaa !23
  %.not23 = icmp eq ptr %7, null
  br i1 %.not23, label %25, label %8

8:                                                ; preds = %5
  %9 = getelementptr inbounds nuw i8, ptr %0, i64 40
  %10 = load ptr, ptr %9, align 8, !tbaa !18
  %11 = tail call i64 %7(ptr noundef %10, i64 noundef 0, i32 noundef 65536) #14
  %12 = icmp slt i64 %11, 0
  br i1 %12, label %13, label %25

13:                                               ; preds = %8
  %14 = load ptr, ptr %6, align 8, !tbaa !23
  %15 = load ptr, ptr %9, align 8, !tbaa !18
  %16 = tail call i64 %14(ptr noundef %15, i64 noundef -1, i32 noundef 2) #14
  %17 = icmp slt i64 %16, 0
  br i1 %17, label %25, label %18

18:                                               ; preds = %13
  %19 = add nuw nsw i64 %16, 1
  %20 = load ptr, ptr %6, align 8, !tbaa !23
  %21 = load ptr, ptr %9, align 8, !tbaa !18
  %22 = getelementptr inbounds nuw i8, ptr %0, i64 72
  %23 = load i64, ptr %22, align 8, !tbaa !27
  %24 = tail call i64 %20(ptr noundef %21, i64 noundef %23, i32 noundef 0) #14
  br label %25

25:                                               ; preds = %8, %18, %13, %5, %2, %1
  %.016 = phi i64 [ -22, %1 ], [ %4, %2 ], [ -38, %5 ], [ %16, %13 ], [ %19, %18 ], [ %11, %8 ]
  ret i64 %.016
}